(dp0
S'bob'
p1
(dp2
S'pay'
p3
I3000
sS'job'
p4
S'dev'
p5
sS'age'
p6
I42
sS'name'
p7
S'Bob Smith'
p8
ssS'sue'
p9
(dp10
g3
F4400.0
sg4
S'mus'
p11
sg6
I45
sg7
S'Sue Jones'
p12
ssS'tom'
p13
(dp14
g3
I0
sg4
Nsg6
I50
sg7
S'Tom Tom guy'
p15
ss.